target datalayout = "e-m:e-p270:32:32-p271:32:32-p272:64:64-i64:64-i128:128-f80:128-n8:16:32:64-S128"
target triple = "x86_64-pc-linux-gnu"

%"class.google::protobuf::internal::GeneratedExtensionFinder" = type { %"class.google::protobuf::internal::ExtensionFinder", ptr }
%"class.google::protobuf::internal::ExtensionFinder" = type { ptr }
%"struct.google::protobuf::internal::ExtensionInfo" = type { i8, i8, i8, %union.anon, ptr }
%union.anon = type { %"struct.google::protobuf::internal::ExtensionInfo::EnumValidityCheck" }
%"struct.google::protobuf::internal::ExtensionInfo::EnumValidityCheck" = type { ptr, ptr }
%"class.google::protobuf::internal::FieldSkipper" = type { ptr }
%"class.google::protobuf::internal::CodedOutputStreamFieldSkipper" = type { %"class.google::protobuf::internal::FieldSkipper", ptr }

@_ZTVN6google8protobuf8internal12FieldSkipperE = external unnamed_addr constant { [7 x ptr] }, align 8
@_ZTVN6google8protobuf8internal29CodedOutputStreamFieldSkipperE = external unnamed_addr constant { [7 x ptr] }, align 8

; Function Attrs: mustprogress nounwind uwtable
define linkonce_odr noundef i32 @_ZN6google8protobuf8internal14WireFormatLite14GetTagWireTypeEj(i32 noundef %0) #4 comdat align 2 {
  %2 = alloca i32, align 4
  store i32 %0, ptr %2, align 4
  %3 = load i32, ptr %2, align 4
  %4 = and i32 %3, 7
  ret i32 %4
}

; Function Attrs: mustprogress nounwind uwtable
define linkonce_odr noundef i32 @_ZN6google8protobuf8internal14WireFormatLite17GetTagFieldNumberEj(i32 noundef %0) #4 comdat align 2 {
  %2 = alloca i32, align 4
  store i32 %0, ptr %2, align 4
  %3 = load i32, ptr %2, align 4
  %4 = lshr i32 %3, 3
  ret i32 %4
}

; Function Attrs: mustprogress nounwind uwtable
define linkonce_odr void @_ZN6google8protobuf8internal12FieldSkipperD2Ev(ptr noundef nonnull align 8 dereferenceable(8) %0) unnamed_addr #4 comdat align 2 {
  %2 = alloca ptr, align 8
  store ptr %0, ptr %2, align 8
  ret void
}

; Function Attrs: mustprogress nounwind uwtable
define void @_ZN6google8protobuf8internal15ExtensionFinderD2Ev(ptr noundef nonnull align 8 dereferenceable(8) %0) unnamed_addr #4 align 2 {
  %2 = alloca ptr, align 8
  store ptr %0, ptr %2, align 8
  ret void
}

; Function Attrs: mustprogress uwtable
define noundef zeroext i1 @_ZN6google8protobuf8internal12ExtensionSet24FindExtensionInfoFromTagEjPNS1_15ExtensionFinderEPiPNS1_13ExtensionInfoEPb(ptr noundef nonnull align 8 dereferenceable(24) %0, i32 noundef %1, ptr noundef %2, ptr noundef %3, ptr noundef %4, ptr noundef %5) #6 align 2 {
  %7 = alloca ptr, align 8
  %8 = alloca i32, align 4
  %9 = alloca ptr, align 8
  %10 = alloca ptr, align 8
  %11 = alloca ptr, align 8
  %12 = alloca ptr, align 8
  %13 = alloca i32, align 4
  store ptr %0, ptr %7, align 8
  store i32 %1, ptr %8, align 4
  store ptr %2, ptr %9, align 8
  store ptr %3, ptr %10, align 8
  store ptr %4, ptr %11, align 8
  store ptr %5, ptr %12, align 8
  %14 = load ptr, ptr %7, align 8
  %15 = load i32, ptr %8, align 4
  %16 = call noundef i32 @_ZN6google8protobuf8internal14WireFormatLite17GetTagFieldNumberEj(i32 noundef %15)
  %17 = load ptr, ptr %10, align 8
  store i32 %16, ptr %17, align 4
  %18 = load i32, ptr %8, align 4
  %19 = call noundef i32 @_ZN6google8protobuf8internal14WireFormatLite14GetTagWireTypeEj(i32 noundef %18)
  store i32 %19, ptr %13, align 4
  %20 = load i32, ptr %13, align 4
  %21 = load ptr, ptr %10, align 8
  %22 = load i32, ptr %21, align 4
  %23 = load ptr, ptr %9, align 8
  %24 = load ptr, ptr %11, align 8
  %25 = load ptr, ptr %12, align 8
  %26 = call noundef zeroext i1 @_ZN6google8protobuf8internal12ExtensionSet32FindExtensionInfoFromFieldNumberEiiPNS1_15ExtensionFinderEPNS1_13ExtensionInfoEPb(ptr noundef nonnull align 8 dereferenceable(24) %14, i32 noundef %20, i32 noundef %22, ptr noundef %23, ptr noundef %24, ptr noundef %25)
  ret i1 %26
}

; Function Attrs: mustprogress nounwind uwtable
define linkonce_odr void @_ZN6google8protobuf8internal13ExtensionInfoC2Ev(ptr noundef nonnull align 8 dereferenceable(32) %0) unnamed_addr #4 comdat align 2 {
  %2 = alloca ptr, align 8
  store ptr %0, ptr %2, align 8
  ret void
}

; Function Attrs: mustprogress nounwind uwtable
define linkonce_odr void @_ZN6google8protobuf8internal15ExtensionFinderC2Ev(ptr noundef nonnull align 8 dereferenceable(8) %0) unnamed_addr #4 comdat align 2 {
  %2 = alloca ptr, align 8
  store ptr %0, ptr %2, align 8
  %3 = load ptr, ptr %2, align 8
  store ptr getelementptr inbounds inrange(-16, 24) ({ [5 x ptr] }, ptr @_ZTVN6google8protobuf8internal15ExtensionFinderE, i32 0, i32 0, i32 2), ptr %3, align 8
  ret void
}

; Function Attrs: mustprogress nounwind uwtable
define linkonce_odr void @_ZN6google8protobuf8internal12FieldSkipperC2Ev(ptr noundef nonnull align 8 dereferenceable(8) %0) unnamed_addr #4 comdat align 2 {
  %2 = alloca ptr, align 8
  store ptr %0, ptr %2, align 8
  %3 = load ptr, ptr %2, align 8
  store ptr getelementptr inbounds inrange(-16, 40) ({ [7 x ptr] }, ptr @_ZTVN6google8protobuf8internal12FieldSkipperE, i32 0, i32 0, i32 2), ptr %3, align 8
  ret void
}

; Function Attrs: mustprogress nounwind uwtable
define linkonce_odr void @_ZN6google8protobuf8internal29CodedOutputStreamFieldSkipperD2Ev(ptr noundef nonnull align 8 dereferenceable(16) %0) unnamed_addr #4 comdat align 2 {
  %2 = alloca ptr, align 8
  store ptr %0, ptr %2, align 8
  %3 = load ptr, ptr %2, align 8
  call void @_ZN6google8protobuf8internal12FieldSkipperD2Ev(ptr noundef nonnull align 8 dereferenceable(8) %3) #3
  ret void
}

; Function Attrs: mustprogress nounwind uwtable
define linkonce_odr void @_ZN6google8protobuf8internal24GeneratedExtensionFinderD2Ev(ptr noundef nonnull align 8 dereferenceable(16) %0) unnamed_addr #4 comdat align 2 {
  %2 = alloca ptr, align 8
  store ptr %0, ptr %2, align 8
  %3 = load ptr, ptr %2, align 8
  call void @_ZN6google8protobuf8internal15ExtensionFinderD2Ev(ptr noundef nonnull align 8 dereferenceable(8) %3) #3
  ret void
}

; Function Attrs: mustprogress uwtable
define noundef zeroext i1 @_ZN6google8protobuf8internal12ExtensionSet10ParseFieldEjPNS0_2io16CodedInputStreamEPNS1_15ExtensionFinderEPNS1_12FieldSkipperE(ptr noundef nonnull align 8 dereferenceable(24) %0, i32 noundef %1, ptr noundef %2, ptr noundef %3, ptr noundef %4) #6 align 2 {
  %6 = alloca i1, align 1
  %7 = alloca ptr, align 8
  %8 = alloca i32, align 4
  %9 = alloca ptr, align 8
  %10 = alloca ptr, align 8
  %11 = alloca ptr, align 8
  %12 = alloca i32, align 4
  %13 = alloca i8, align 1
  %14 = alloca %"struct.google::protobuf::internal::ExtensionInfo", align 8
  store ptr %0, ptr %7, align 8
  store i32 %1, ptr %8, align 4
  store ptr %2, ptr %9, align 8
  store ptr %3, ptr %10, align 8
  store ptr %4, ptr %11, align 8
  %15 = load ptr, ptr %7, align 8
  call void @_ZN6google8protobuf8internal13ExtensionInfoC2Ev(ptr noundef nonnull align 8 dereferenceable(32) %14)
  %16 = load i32, ptr %8, align 4
  %17 = load ptr, ptr %10, align 8
  %18 = call noundef zeroext i1 @_ZN6google8protobuf8internal12ExtensionSet24FindExtensionInfoFromTagEjPNS1_15ExtensionFinderEPiPNS1_13ExtensionInfoEPb(ptr noundef nonnull align 8 dereferenceable(24) %15, i32 noundef %16, ptr noundef %17, ptr noundef %12, ptr noundef %14, ptr noundef %13)
  br i1 %18, label %27, label %19

19:                                               ; preds = %5
  %20 = load ptr, ptr %11, align 8
  %21 = load ptr, ptr %9, align 8
  %22 = load i32, ptr %8, align 4
  %23 = load ptr, ptr %20, align 8
  %24 = getelementptr inbounds ptr, ptr %23, i64 2
  %25 = load ptr, ptr %24, align 8
  %26 = call noundef zeroext i1 %25(ptr noundef nonnull align 8 dereferenceable(8) %20, ptr noundef %21, i32 noundef %22)
  store i1 %26, ptr %6, align 1
  br label %34

27:                                               ; preds = %5
  %28 = load i32, ptr %12, align 4
  %29 = load i8, ptr %13, align 1
  %30 = trunc i8 %29 to i1
  %31 = load ptr, ptr %9, align 8
  %32 = load ptr, ptr %11, align 8
  %33 = call noundef zeroext i1 @_ZN6google8protobuf8internal12ExtensionSet27ParseFieldWithExtensionInfoEibRKNS1_13ExtensionInfoEPNS0_2io16CodedInputStreamEPNS1_12FieldSkipperE(ptr noundef nonnull align 8 dereferenceable(24) %15, i32 noundef %28, i1 noundef zeroext %30, ptr noundef nonnull align 8 dereferenceable(32) %14, ptr noundef %31, ptr noundef %32)
  store i1 %33, ptr %6, align 1
  br label %34

34:                                               ; preds = %27, %19
  %35 = load i1, ptr %6, align 1
  ret i1 %35
}

; Function Attrs: mustprogress nounwind uwtable
define linkonce_odr void @_ZN6google8protobuf8internal24GeneratedExtensionFinderC2EPKNS0_11MessageLiteE(ptr noundef nonnull align 8 dereferenceable(16) %0, ptr noundef %1) unnamed_addr #4 comdat align 2 {
  %3 = alloca ptr, align 8
  %4 = alloca ptr, align 8
  store ptr %0, ptr %3, align 8
  store ptr %1, ptr %4, align 8
  %5 = load ptr, ptr %3, align 8
  call void @_ZN6google8protobuf8internal15ExtensionFinderC2Ev(ptr noundef nonnull align 8 dereferenceable(8) %5) #3
  store ptr getelementptr inbounds inrange(-16, 24) ({ [5 x ptr] }, ptr @_ZTVN6google8protobuf8internal24GeneratedExtensionFinderE, i32 0, i32 0, i32 2), ptr %5, align 8
  %6 = getelementptr inbounds %"class.google::protobuf::internal::GeneratedExtensionFinder", ptr %5, i32 0, i32 1
  %7 = load ptr, ptr %4, align 8
  store ptr %7, ptr %6, align 8
  ret void
}

; Function Attrs: mustprogress nounwind uwtable
define linkonce_odr void @_ZN6google8protobuf8internal29CodedOutputStreamFieldSkipperC2EPNS0_2io17CodedOutputStreamE(ptr noundef nonnull align 8 dereferenceable(16) %0, ptr noundef %1) unnamed_addr #4 comdat align 2 {
  %3 = alloca ptr, align 8
  %4 = alloca ptr, align 8
  store ptr %0, ptr %3, align 8
  store ptr %1, ptr %4, align 8
  %5 = load ptr, ptr %3, align 8
  call void @_ZN6google8protobuf8internal12FieldSkipperC2Ev(ptr noundef nonnull align 8 dereferenceable(8) %5)
  store ptr getelementptr inbounds inrange(-16, 40) ({ [7 x ptr] }, ptr @_ZTVN6google8protobuf8internal29CodedOutputStreamFieldSkipperE, i32 0, i32 0, i32 2), ptr %5, align 8
  %6 = getelementptr inbounds %"class.google::protobuf::internal::CodedOutputStreamFieldSkipper", ptr %5, i32 0, i32 1
  %7 = load ptr, ptr %4, align 8
  store ptr %7, ptr %6, align 8
  ret void
}

; Function Attrs: mustprogress uwtable
define noundef zeroext i1 @_ZN6google8protobuf8internal12ExtensionSet10ParseFieldEjPNS0_2io16CodedInputStreamEPKNS0_11MessageLiteEPNS3_17CodedOutputStreamE(ptr noundef nonnull align 8 dereferenceable(24) %0, i32 noundef %1, ptr noundef %2, ptr noundef %3, ptr noundef %4) #6 align 2 personality ptr @__gxx_personality_v0 {
  %6 = alloca ptr, align 8
  %7 = alloca i32, align 4
  %8 = alloca ptr, align 8
  %9 = alloca ptr, align 8
  %10 = alloca ptr, align 8
  %11 = alloca %"class.google::protobuf::internal::CodedOutputStreamFieldSkipper", align 8
  %12 = alloca %"class.google::protobuf::internal::GeneratedExtensionFinder", align 8
  %13 = alloca ptr, align 8
  %14 = alloca i32, align 4
  store ptr %0, ptr %6, align 8
  store i32 %1, ptr %7, align 4
  store ptr %2, ptr %8, align 8
  store ptr %3, ptr %9, align 8
  store ptr %4, ptr %10, align 8
  %15 = load ptr, ptr %6, align 8
  %16 = load ptr, ptr %10, align 8
  call void @_ZN6google8protobuf8internal29CodedOutputStreamFieldSkipperC2EPNS0_2io17CodedOutputStreamE(ptr noundef nonnull align 8 dereferenceable(16) %11, ptr noundef %16)
  %17 = load ptr, ptr %9, align 8
  invoke void @_ZN6google8protobuf8internal24GeneratedExtensionFinderC2EPKNS0_11MessageLiteE(ptr noundef nonnull align 8 dereferenceable(16) %12, ptr noundef %17)
          to label %18 unwind label %23

18:                                               ; preds = %5
  %19 = load i32, ptr %7, align 4
  %20 = load ptr, ptr %8, align 8
  %21 = invoke noundef zeroext i1 @_ZN6google8protobuf8internal12ExtensionSet10ParseFieldEjPNS0_2io16CodedInputStreamEPNS1_15ExtensionFinderEPNS1_12FieldSkipperE(ptr noundef nonnull align 8 dereferenceable(24) %15, i32 noundef %19, ptr noundef %20, ptr noundef %12, ptr noundef %11)
          to label %22 unwind label %27

22:                                               ; preds = %18
  call void @_ZN6google8protobuf8internal24GeneratedExtensionFinderD2Ev(ptr noundef nonnull align 8 dereferenceable(16) %12) #3
  call void @_ZN6google8protobuf8internal29CodedOutputStreamFieldSkipperD2Ev(ptr noundef nonnull align 8 dereferenceable(16) %11) #3
  ret i1 %21

23:                                               ; preds = %5
  %24 = landingpad { ptr, i32 }
          cleanup
  %25 = extractvalue { ptr, i32 } %24, 0
  store ptr %25, ptr %13, align 8
  %26 = extractvalue { ptr, i32 } %24, 1
  store i32 %26, ptr %14, align 4
  br label %31

27:                                               ; preds = %18
  %28 = landingpad { ptr, i32 }
          cleanup
  %29 = extractvalue { ptr, i32 } %28, 0
  store ptr %29, ptr %13, align 8
  %30 = extractvalue { ptr, i32 } %28, 1
  store i32 %30, ptr %14, align 4
  call void @_ZN6google8protobuf8internal24GeneratedExtensionFinderD2Ev(ptr noundef nonnull align 8 dereferenceable(16) %12) #3
  br label %31

31:                                               ; preds = %27, %23
  call void @_ZN6google8protobuf8internal29CodedOutputStreamFieldSkipperD2Ev(ptr noundef nonnull align 8 dereferenceable(16) %11) #3
  br label %32

32:                                               ; preds = %31
  %33 = load ptr, ptr %13, align 8
  %34 = load i32, ptr %14, align 4
  %35 = insertvalue { ptr, i32 } poison, ptr %33, 0
  %36 = insertvalue { ptr, i32 } %35, i32 %34, 1
  resume { ptr, i32 } %36
}