; Function Attrs: mustprogress uwtable
define noundef zeroext i1 @_ZN6google8protobuf8internal12ExtensionSet10ParseFieldEjPNS0_2io16CodedInputStreamEPKNS0_11MessageLiteEPNS3_17CodedOutputStreamE(ptr nocapture noundef nonnull align 8 dereferenceable(24) %0, i32 noundef %1, ptr noundef %2, ptr noundef %3, ptr noundef %4) local_unnamed_addr #8 align 2 personality ptr @__gxx_personality_v0 {
.noexc:
  %5 = alloca i8, align 1
  %6 = alloca %"struct.google::protobuf::internal::ExtensionInfo", align 8
  %7 = alloca %"class.google::protobuf::internal::CodedOutputStreamFieldSkipper", align 8
  %8 = alloca %"class.google::protobuf::internal::GeneratedExtensionFinder", align 8
  store ptr getelementptr inbounds inrange(-16, 40) (i8, ptr @_ZTVN6google8protobuf8internal29CodedOutputStreamFieldSkipperE, i64 16), ptr %7, align 8
  %9 = getelementptr inbounds i8, ptr %7, i64 8
  store ptr %4, ptr %9, align 8
  store ptr getelementptr inbounds inrange(-16, 24) (i8, ptr @_ZTVN6google8protobuf8internal24GeneratedExtensionFinderE, i64 16), ptr %8, align 8
  %10 = getelementptr inbounds i8, ptr %8, i64 8
  store ptr %3, ptr %10, align 8
  call void @llvm.lifetime.start.p0(i64 1, ptr nonnull %5)
  call void @llvm.lifetime.start.p0(i64 32, ptr nonnull %6)
  %11 = lshr i32 %1, 3
  %12 = and i32 %1, 7
  %13 = call noundef zeroext i1 @_ZN6google8protobuf8internal12ExtensionSet32FindExtensionInfoFromFieldNumberEiiPNS1_15ExtensionFinderEPNS1_13ExtensionInfoEPb(ptr nonnull readnone align 8 poison, i32 noundef %12, i32 noundef %11, ptr noundef nonnull %8, ptr noundef nonnull %6, ptr noundef nonnull writeonly %5)
  br i1 %13, label %17, label %14

14:                                               ; preds = %.noexc
  %15 = load ptr, ptr getelementptr inbounds inrange(-32, 24) (i8, ptr @_ZTVN6google8protobuf8internal29CodedOutputStreamFieldSkipperE, i64 32), align 8
  %16 = call noundef zeroext i1 %15(ptr noundef nonnull align 8 dereferenceable(8) %7, ptr noundef %2, i32 noundef %1)
  br label %21

17:                                               ; preds = %.noexc
  %18 = load i8, ptr %5, align 1
  %19 = trunc i8 %18 to i1
  %20 = call noundef zeroext i1 @_ZN6google8protobuf8internal12ExtensionSet27ParseFieldWithExtensionInfoEibRKNS1_13ExtensionInfoEPNS0_2io16CodedInputStreamEPNS1_12FieldSkipperE(ptr noundef nonnull align 8 dereferenceable(24) %0, i32 noundef %11, i1 noundef zeroext %19, ptr noundef nonnull align 8 dereferenceable(32) %6, ptr noundef %2, ptr noundef nonnull %7)
  br label %21

21:                                               ; preds = %14, %17
  %.0.i = phi i1 [ %16, %14 ], [ %20, %17 ]
  call void @llvm.lifetime.end.p0(i64 1, ptr nonnull %5)
  call void @llvm.lifetime.end.p0(i64 32, ptr nonnull %6)
  ret i1 %.0.i
}